target datalayout = "e-m:e-p270:32:32-p271:32:32-p272:64:64-i64:64-i128:128-f80:128-n8:16:32:64-S128"
target triple = "x86_64-pc-linux-gnu"

; Function Attrs: nounwind uwtable
define internal i32 @generate_unverifiable_g(ptr noundef %0, ptr noundef %1, ptr noundef %2, ptr noundef %3, ptr noundef %4, ptr noundef %5, ptr noundef %6, ptr noundef %7) #0 {
  %9 = alloca i32, align 4
  %10 = alloca ptr, align 8
  %11 = alloca ptr, align 8
  %12 = alloca ptr, align 8
  %13 = alloca ptr, align 8
  %14 = alloca ptr, align 8
  %15 = alloca ptr, align 8
  %16 = alloca ptr, align 8
  %17 = alloca ptr, align 8
  %18 = alloca i32, align 4
  %19 = alloca i32, align 4
  store ptr %0, ptr %10, align 8, !tbaa !24
  store ptr %1, ptr %11, align 8, !tbaa !22
  store ptr %2, ptr %12, align 8, !tbaa !20
  store ptr %3, ptr %13, align 8, !tbaa !20
  store ptr %4, ptr %14, align 8, !tbaa !20
  store ptr %5, ptr %15, align 8, !tbaa !20
  store ptr %6, ptr %16, align 8, !tbaa !20
  store ptr %7, ptr %17, align 8, !tbaa !14
  call void @llvm.lifetime.start.p0(i64 4, ptr %18) #5
  store i32 2, ptr %18, align 4, !tbaa !10
  %20 = load ptr, ptr %13, align 8, !tbaa !20
  %21 = load i32, ptr %18, align 4, !tbaa !10
  %22 = sext i32 %21 to i64
  %23 = call i32 @BN_set_word(ptr noundef %20, i64 noundef %22)
  %24 = icmp ne i32 %23, 0
  br i1 %24, label %26, label %25

25:                                               ; preds = %8
  store i32 0, ptr %9, align 4
  store i32 1, ptr %19, align 4
  br label %59

26:                                               ; preds = %8
  br label %27

27:                                               ; preds = %53, %26
  %28 = load ptr, ptr %12, align 8, !tbaa !20
  %29 = load ptr, ptr %13, align 8, !tbaa !20
  %30 = load ptr, ptr %15, align 8, !tbaa !20
  %31 = load ptr, ptr %14, align 8, !tbaa !20
  %32 = load ptr, ptr %10, align 8, !tbaa !24
  %33 = load ptr, ptr %11, align 8, !tbaa !22
  %34 = call i32 @BN_mod_exp_mont(ptr noundef %28, ptr noundef %29, ptr noundef %30, ptr noundef %31, ptr noundef %32, ptr noundef %33)
  %35 = icmp ne i32 %34, 0
  br i1 %35, label %37, label %36

36:                                               ; preds = %27
  store i32 0, ptr %9, align 4
  store i32 1, ptr %19, align 4
  br label %59

37:                                               ; preds = %27
  %38 = load ptr, ptr %12, align 8, !tbaa !20
  %39 = call ptr @BN_value_one()
  %40 = call i32 @BN_cmp(ptr noundef %38, ptr noundef %39)
  %41 = icmp sgt i32 %40, 0
  br i1 %41, label %42, label %43

42:                                               ; preds = %37
  br label %56

43:                                               ; preds = %37
  %44 = load ptr, ptr %13, align 8, !tbaa !20
  %45 = call i32 @BN_add_word(ptr noundef %44, i64 noundef 1)
  %46 = icmp ne i32 %45, 0
  br i1 %46, label %47, label %52

47:                                               ; preds = %43
  %48 = load ptr, ptr %13, align 8, !tbaa !20
  %49 = load ptr, ptr %16, align 8, !tbaa !20
  %50 = call i32 @BN_cmp(ptr noundef %48, ptr noundef %49)
  %51 = icmp sge i32 %50, 0
  br i1 %51, label %52, label %53

52:                                               ; preds = %47, %43
  store i32 0, ptr %9, align 4
  store i32 1, ptr %19, align 4
  br label %59

53:                                               ; preds = %47
  %54 = load i32, ptr %18, align 4, !tbaa !10
  %55 = add nsw i32 %54, 1
  store i32 %55, ptr %18, align 4, !tbaa !10
  br label %27

56:                                               ; preds = %42
  %57 = load i32, ptr %18, align 4, !tbaa !10
  %58 = load ptr, ptr %17, align 8, !tbaa !14
  store i32 %57, ptr %58, align 4, !tbaa !10
  store i32 1, ptr %9, align 4
  store i32 1, ptr %19, align 4
  br label %59

59:                                               ; preds = %56, %52, %36, %25
  call void @llvm.lifetime.end.p0(i64 4, ptr %18) #5
  %60 = load i32, ptr %9, align 4
  ret i32 %60
}