; Function Attrs: nounwind uwtable
define internal fastcc range(i32 0, 2) i32 @generate_unverifiable_g(ptr noundef nonnull %0, ptr noundef nonnull %1, ptr noundef %2, ptr noundef %3, ptr noundef %4, ptr noundef %5, ptr noundef %6, ptr noundef nonnull writeonly captures(none) %7) unnamed_addr #0 {
  %9 = tail call i32 @BN_set_word(ptr noundef %3, i64 noundef 2) #5
  %.not = icmp eq i32 %9, 0
  br i1 %.not, label %.loopexit, label %.preheader

.preheader:                                       ; preds = %8
  %10 = tail call i32 @BN_mod_exp_mont(ptr noundef %2, ptr noundef %3, ptr noundef %5, ptr noundef %4, ptr noundef nonnull %0, ptr noundef nonnull %1) #5
  %.not1619 = icmp eq i32 %10, 0
  br i1 %.not1619, label %.loopexit, label %.lr.ph

.lr.ph:                                           ; preds = %.preheader, %19
  %.020 = phi i32 [ %20, %19 ], [ 2, %.preheader ]
  %11 = tail call ptr @BN_value_one() #5
  %12 = tail call i32 @BN_cmp(ptr noundef %2, ptr noundef %11) #5
  %13 = icmp sgt i32 %12, 0
  br i1 %13, label %22, label %14

14:                                               ; preds = %.lr.ph
  %15 = tail call i32 @BN_add_word(ptr noundef %3, i64 noundef 1) #5
  %.not17 = icmp eq i32 %15, 0
  br i1 %.not17, label %.loopexit, label %16

16:                                               ; preds = %14
  %17 = tail call i32 @BN_cmp(ptr noundef %3, ptr noundef %6) #5
  %18 = icmp sgt i32 %17, -1
  br i1 %18, label %.loopexit, label %19

19:                                               ; preds = %16
  %20 = add nuw nsw i32 %.020, 1
  %21 = tail call i32 @BN_mod_exp_mont(ptr noundef %2, ptr noundef %3, ptr noundef %5, ptr noundef %4, ptr noundef nonnull %0, ptr noundef nonnull %1) #5
  %.not16 = icmp eq i32 %21, 0
  br i1 %.not16, label %.loopexit, label %.lr.ph

22:                                               ; preds = %.lr.ph
  store i32 %.020, ptr %7, align 4, !tbaa !3
  br label %.loopexit

.loopexit:                                        ; preds = %19, %16, %14, %.preheader, %8, %22
  %.015 = phi i32 [ 1, %22 ], [ 0, %8 ], [ 0, %.preheader ], [ 0, %14 ], [ 0, %16 ], [ 0, %19 ]
  ret i32 %.015
}